target datalayout = "e-m:e-p270:32:32-p271:32:32-p272:64:64-i64:64-i128:128-f80:128-n8:16:32:64-S128"
target triple = "x86_64-pc-linux-gnu"

%union.SourceSpan = type { i64 }
%union.anon.2 = type { ptr }
%union.anon.3 = type { i16 }
%union.anon.4 = type { %struct.FuncDecl }
%struct.FuncDecl = type { i32, [4 x i8], %struct.Signature_, i32, i32, %union.anon.11 }
%struct.Signature_ = type <{ %struct.CalleeAttributes, i16, i8, i32, i32, [4 x i8], ptr }>
%struct.CalleeAttributes = type { i8 }
%union.anon.11 = type { %struct.anon.12 }
%struct.anon.12 = type { i16, %union.anon.13 }
%union.anon.13 = type { ptr }
%union.anon.26 = type { %struct.ExprAnySwitch }
%struct.ExprAnySwitch = type { i8, %union.anon.28 }
%union.anon.28 = type { %struct.anon.29 }
%struct.anon.29 = type { ptr, %union.SourceSpan, ptr }
%struct.HTable = type { i32, ptr }
%struct.Decl_ = type { ptr, ptr, %union.SourceSpan, i64, %union.anon.2, i32, %union.anon.3, i64, ptr, ptr, ptr, %union.anon.4 }
%struct.CompilationUnit_ = type { ptr, ptr, ptr, ptr, ptr, ptr, ptr, ptr, ptr, ptr, i32, ptr, i8, i8, i8, i8, ptr, ptr, ptr, ptr, ptr, ptr, ptr, ptr, ptr, ptr, ptr, ptr, %struct.HTable, i32, ptr, ptr, %struct.anon.88 }
%struct.anon.88 = type { ptr, ptr }
%struct.VHeader_ = type { i32, i32, [0 x i8] }
%struct.Attr = type { ptr, ptr, %union.SourceSpan, i16, ptr }
%struct.Expr_ = type { ptr, %union.SourceSpan, i16, %union.anon.26 }
%struct.ExprConst = type { i16, %union.anon.35 }
%union.anon.35 = type { %struct.Int }
%struct.Int = type { %struct.Int128_, i32 }
%struct.Int128_ = type { i64, i64 }
%struct.anon.36 = type { ptr, i32 }

; Function Attrs: nounwind uwtable
define dso_local void @decl_append_links_to_global(ptr noundef %0) #0 {
  %2 = alloca i32, align 4
  %3 = alloca ptr, align 8
  %4 = alloca ptr, align 8
  %5 = alloca i32, align 4
  %6 = alloca ptr, align 8
  %7 = alloca ptr, align 8
  %8 = alloca i32, align 4
  %9 = alloca ptr, align 8
  %10 = alloca ptr, align 8
  %11 = alloca ptr, align 8
  %12 = alloca ptr, align 8
  %13 = alloca ptr, align 8
  %14 = alloca i32, align 4
  %15 = alloca i32, align 4
  %16 = alloca ptr, align 8
  %17 = alloca ptr, align 8
  %18 = alloca i32, align 4
  %19 = alloca i32, align 4
  %20 = alloca ptr, align 8
  %21 = alloca i32, align 4
  %22 = alloca i32, align 4
  %23 = alloca ptr, align 8
  store ptr %0, ptr %11, align 8
  %24 = load ptr, ptr %11, align 8
  %25 = getelementptr inbounds %struct.Decl_, ptr %24, i32 0, i32 8
  %26 = load ptr, ptr %25, align 8
  store ptr %26, ptr %12, align 8
  %27 = load ptr, ptr %12, align 8
  %28 = icmp ne ptr %27, null
  br i1 %28, label %29, label %68

29:                                               ; preds = %1
  %30 = load ptr, ptr %12, align 8
  %31 = getelementptr inbounds %struct.CompilationUnit_, ptr %30, i32 0, i32 9
  %32 = load ptr, ptr %31, align 8
  %33 = icmp ne ptr %32, null
  br i1 %33, label %34, label %68

34:                                               ; preds = %29
  %35 = load ptr, ptr %12, align 8
  %36 = getelementptr inbounds %struct.CompilationUnit_, ptr %35, i32 0, i32 9
  %37 = load ptr, ptr %36, align 8
  store ptr %37, ptr %13, align 8
  %38 = load ptr, ptr %13, align 8
  store ptr %38, ptr %3, align 8
  %39 = load ptr, ptr %3, align 8
  %40 = icmp ne ptr %39, null
  br i1 %40, label %42, label %41

41:                                               ; preds = %34
  store i32 0, ptr %2, align 4
  br label %47

42:                                               ; preds = %34
  %43 = load ptr, ptr %3, align 8
  store ptr %43, ptr %4, align 8
  %44 = load ptr, ptr %4, align 8
  %45 = getelementptr inbounds %struct.VHeader_, ptr %44, i64 -1
  %46 = load i32, ptr %45, align 4
  store i32 %46, ptr %2, align 4
  br label %47

47:                                               ; preds = %42, %41
  %48 = load i32, ptr %2, align 4
  store i32 %48, ptr %14, align 4
  store i32 0, ptr %15, align 4
  br label %49

49:                                               ; preds = %60, %47
  %50 = load i32, ptr %15, align 4
  %51 = load i32, ptr %14, align 4
  %52 = icmp ult i32 %50, %51
  br i1 %52, label %53, label %63

53:                                               ; preds = %49
  %54 = load ptr, ptr %13, align 8
  %55 = load i32, ptr %15, align 4
  %56 = zext i32 %55 to i64
  %57 = getelementptr inbounds ptr, ptr %54, i64 %56
  %58 = load ptr, ptr %57, align 8
  store ptr %58, ptr %16, align 8
  %59 = load ptr, ptr %16, align 8
  call void @global_context_add_link(ptr noundef %59)
  br label %60

60:                                               ; preds = %53
  %61 = load i32, ptr %15, align 4
  %62 = add i32 %61, 1
  store i32 %62, ptr %15, align 4
  br label %49, !llvm.loop !11

63:                                               ; preds = %49
  br label %64

64:                                               ; preds = %63
  br label %65

65:                                               ; preds = %64
  %66 = load ptr, ptr %12, align 8
  %67 = getelementptr inbounds %struct.CompilationUnit_, ptr %66, i32 0, i32 9
  store ptr null, ptr %67, align 8
  br label %68

68:                                               ; preds = %65, %29, %1
  %69 = load ptr, ptr %11, align 8
  %70 = getelementptr inbounds %struct.Decl_, ptr %69, i32 0, i32 3
  %71 = load i64, ptr %70, align 8
  %72 = lshr i64 %71, 33
  %73 = and i64 %72, 1
  %74 = trunc i64 %73 to i1
  br i1 %74, label %75, label %158

75:                                               ; preds = %68
  %76 = load ptr, ptr %11, align 8
  %77 = getelementptr inbounds %struct.Decl_, ptr %76, i32 0, i32 9
  %78 = load ptr, ptr %77, align 8
  store ptr %78, ptr %17, align 8
  %79 = load ptr, ptr %17, align 8
  store ptr %79, ptr %6, align 8
  %80 = load ptr, ptr %6, align 8
  %81 = icmp ne ptr %80, null
  br i1 %81, label %83, label %82

82:                                               ; preds = %75
  store i32 0, ptr %5, align 4
  br label %88

83:                                               ; preds = %75
  %84 = load ptr, ptr %6, align 8
  store ptr %84, ptr %7, align 8
  %85 = load ptr, ptr %7, align 8
  %86 = getelementptr inbounds %struct.VHeader_, ptr %85, i64 -1
  %87 = load i32, ptr %86, align 4
  store i32 %87, ptr %5, align 4
  br label %88

88:                                               ; preds = %83, %82
  %89 = load i32, ptr %5, align 4
  store i32 %89, ptr %18, align 4
  store i32 0, ptr %19, align 4
  br label %90

90:                                               ; preds = %152, %88
  %91 = load i32, ptr %19, align 4
  %92 = load i32, ptr %18, align 4
  %93 = icmp ult i32 %91, %92
  br i1 %93, label %94, label %155

94:                                               ; preds = %90
  %95 = load ptr, ptr %17, align 8
  %96 = load i32, ptr %19, align 4
  %97 = zext i32 %96 to i64
  %98 = getelementptr inbounds ptr, ptr %95, i64 %97
  %99 = load ptr, ptr %98, align 8
  store ptr %99, ptr %20, align 8
  %100 = load ptr, ptr %20, align 8
  %101 = getelementptr inbounds %struct.Attr, ptr %100, i32 0, i32 3
  %102 = load i16, ptr %101, align 8
  %103 = and i16 %102, 255
  %104 = zext i16 %103 to i32
  %105 = icmp ne i32 %104, 14
  br i1 %105, label %106, label %107

106:                                              ; preds = %94
  br label %152

107:                                              ; preds = %94
  %108 = load ptr, ptr %20, align 8
  %109 = getelementptr inbounds %struct.Attr, ptr %108, i32 0, i32 4
  %110 = load ptr, ptr %109, align 8
  %111 = icmp ne ptr %110, null
  br i1 %111, label %113, label %112

112:                                              ; preds = %107
  br label %152

113:                                              ; preds = %107
  %114 = load ptr, ptr %20, align 8
  %115 = getelementptr inbounds %struct.Attr, ptr %114, i32 0, i32 4
  %116 = load ptr, ptr %115, align 8
  store ptr %116, ptr %9, align 8
  %117 = load ptr, ptr %9, align 8
  %118 = icmp ne ptr %117, null
  br i1 %118, label %120, label %119

119:                                              ; preds = %113
  store i32 0, ptr %8, align 4
  br label %125

120:                                              ; preds = %113
  %121 = load ptr, ptr %9, align 8
  store ptr %121, ptr %10, align 8
  %122 = load ptr, ptr %10, align 8
  %123 = getelementptr inbounds %struct.VHeader_, ptr %122, i64 -1
  %124 = load i32, ptr %123, align 4
  store i32 %124, ptr %8, align 4
  br label %125

125:                                              ; preds = %120, %119
  %126 = load i32, ptr %8, align 4
  store i32 %126, ptr %21, align 4
  store i32 0, ptr %22, align 4
  br label %127

127:                                              ; preds = %148, %125
  %128 = load i32, ptr %22, align 4
  %129 = load i32, ptr %21, align 4
  %130 = icmp ult i32 %128, %129
  br i1 %130, label %131, label %151

131:                                              ; preds = %127
  %132 = load ptr, ptr %20, align 8
  %133 = getelementptr inbounds %struct.Attr, ptr %132, i32 0, i32 4
  %134 = load ptr, ptr %133, align 8
  %135 = load i32, ptr %22, align 4
  %136 = zext i32 %135 to i64
  %137 = getelementptr inbounds ptr, ptr %134, i64 %136
  %138 = load ptr, ptr %137, align 8
  store ptr %138, ptr %23, align 8
  %139 = load ptr, ptr %23, align 8
  %140 = icmp ne ptr %139, null
  br i1 %140, label %142, label %141

141:                                              ; preds = %131
  br label %148

142:                                              ; preds = %131
  %143 = load ptr, ptr %23, align 8
  %144 = getelementptr inbounds %struct.Expr_, ptr %143, i32 0, i32 3
  %145 = getelementptr inbounds %struct.ExprConst, ptr %144, i32 0, i32 1
  %146 = getelementptr inbounds %struct.anon.36, ptr %145, i32 0, i32 0
  %147 = load ptr, ptr %146, align 8
  call void @global_context_add_link(ptr noundef %147)
  br label %148

148:                                              ; preds = %142, %141
  %149 = load i32, ptr %22, align 4
  %150 = add i32 %149, 1
  store i32 %150, ptr %22, align 4
  br label %127, !llvm.loop !12

151:                                              ; preds = %127
  br label %152

152:                                              ; preds = %151, %112, %106
  %153 = load i32, ptr %19, align 4
  %154 = add i32 %153, 1
  store i32 %154, ptr %19, align 4
  br label %90, !llvm.loop !13

155:                                              ; preds = %90
  br label %156

156:                                              ; preds = %155
  br label %157

157:                                              ; preds = %156
  br label %158

158:                                              ; preds = %157, %68
  ret void
}