; Function Attrs: nounwind uwtable
define dso_local void @decl_append_links_to_global(ptr nocapture noundef readonly %0) local_unnamed_addr #0 {
  %2 = getelementptr inbounds i8, ptr %0, i64 56
  %3 = load ptr, ptr %2, align 8
  %.not = icmp eq ptr %3, null
  br i1 %.not, label %12, label %4

4:                                                ; preds = %1
  %5 = getelementptr inbounds i8, ptr %3, i64 72
  %6 = load ptr, ptr %5, align 8
  %.not51 = icmp eq ptr %6, null
  br i1 %.not51, label %12, label %7

7:                                                ; preds = %4
  %8 = getelementptr inbounds i8, ptr %6, i64 -8
  %9 = load i32, ptr %8, align 4
  %.not65 = icmp eq i32 %9, 0
  br i1 %.not65, label %._crit_edge, label %.lr.ph.preheader

.lr.ph.preheader:                                 ; preds = %7
  %wide.trip.count = zext i32 %9 to i64
  br label %.lr.ph

.lr.ph:                                           ; preds = %.lr.ph.preheader, %.lr.ph
  %indvars.iv = phi i64 [ 0, %.lr.ph.preheader ], [ %indvars.iv.next, %.lr.ph ]
  %10 = getelementptr inbounds ptr, ptr %6, i64 %indvars.iv
  %11 = load ptr, ptr %10, align 8
  tail call void @global_context_add_link(ptr noundef %11) #9
  %indvars.iv.next = add nuw nsw i64 %indvars.iv, 1
  %exitcond.not = icmp eq i64 %indvars.iv.next, %wide.trip.count
  br i1 %exitcond.not, label %._crit_edge, label %.lr.ph, !llvm.loop !11

._crit_edge:                                      ; preds = %.lr.ph, %7
  store ptr null, ptr %5, align 8
  br label %12

12:                                               ; preds = %._crit_edge, %4, %1
  %13 = getelementptr inbounds i8, ptr %0, i64 24
  %14 = load i64, ptr %13, align 8
  %15 = and i64 %14, 8589934592
  %.not52 = icmp eq i64 %15, 0
  br i1 %.not52, label %.loopexit57, label %16

16:                                               ; preds = %12
  %17 = getelementptr inbounds i8, ptr %0, i64 64
  %18 = load ptr, ptr %17, align 8
  %.not53 = icmp eq ptr %18, null
  br i1 %.not53, label %.loopexit57, label %19

19:                                               ; preds = %16
  %20 = getelementptr inbounds i8, ptr %18, i64 -8
  %21 = load i32, ptr %20, align 4
  %.not66 = icmp eq i32 %21, 0
  br i1 %.not66, label %.loopexit57, label %.lr.ph64.preheader

.lr.ph64.preheader:                               ; preds = %19
  %wide.trip.count77 = zext i32 %21 to i64
  br label %.lr.ph64

.lr.ph64:                                         ; preds = %.lr.ph64.preheader, %.loopexit
  %indvars.iv74 = phi i64 [ 0, %.lr.ph64.preheader ], [ %indvars.iv.next75, %.loopexit ]
  %22 = getelementptr inbounds ptr, ptr %18, i64 %indvars.iv74
  %23 = load ptr, ptr %22, align 8
  %24 = getelementptr inbounds i8, ptr %23, i64 24
  %25 = load i16, ptr %24, align 8
  %26 = and i16 %25, 255
  %.not54 = icmp eq i16 %26, 14
  br i1 %.not54, label %27, label %.loopexit

27:                                               ; preds = %.lr.ph64
  %28 = getelementptr inbounds i8, ptr %23, i64 32
  %29 = load ptr, ptr %28, align 8
  %.not55 = icmp eq ptr %29, null
  br i1 %.not55, label %.loopexit, label %30

30:                                               ; preds = %27
  %31 = getelementptr inbounds i8, ptr %29, i64 -8
  %32 = load i32, ptr %31, align 4
  %.not67 = icmp eq i32 %32, 0
  br i1 %.not67, label %.loopexit, label %.lr.ph61.preheader

.lr.ph61.preheader:                               ; preds = %30
  %wide.trip.count72 = zext i32 %32 to i64
  br label %.lr.ph61

.lr.ph61:                                         ; preds = %.lr.ph61.preheader, %39
  %indvars.iv69 = phi i64 [ 0, %.lr.ph61.preheader ], [ %indvars.iv.next70, %39 ]
  %33 = load ptr, ptr %28, align 8
  %34 = getelementptr inbounds ptr, ptr %33, i64 %indvars.iv69
  %35 = load ptr, ptr %34, align 8
  %.not56 = icmp eq ptr %35, null
  br i1 %.not56, label %39, label %36

36:                                               ; preds = %.lr.ph61
  %37 = getelementptr inbounds i8, ptr %35, i64 32
  %38 = load ptr, ptr %37, align 8
  tail call void @global_context_add_link(ptr noundef %38) #9
  br label %39

39:                                               ; preds = %.lr.ph61, %36
  %indvars.iv.next70 = add nuw nsw i64 %indvars.iv69, 1
  %exitcond73.not = icmp eq i64 %indvars.iv.next70, %wide.trip.count72
  br i1 %exitcond73.not, label %.loopexit, label %.lr.ph61, !llvm.loop !12

.loopexit:                                        ; preds = %39, %30, %27, %.lr.ph64
  %indvars.iv.next75 = add nuw nsw i64 %indvars.iv74, 1
  %exitcond78.not = icmp eq i64 %indvars.iv.next75, %wide.trip.count77
  br i1 %exitcond78.not, label %.loopexit57, label %.lr.ph64, !llvm.loop !13

.loopexit57:                                      ; preds = %.loopexit, %16, %19, %12
  ret void
}